target datalayout = "e-m:e-p270:32:32-p271:32:32-p272:64:64-i64:64-i128:128-f80:128-n8:16:32:64-S128"
target triple = "x86_64-unknown-linux-gnu"

%"class.sat::literal" = type { i32 }
%"class.pb::constraint" = type { ptr, i32, i8, %"class.sat::literal", %"class.sat::literal", i32, i32, i32, i64, i8, i32, i8, i32 }

@.str = private unnamed_addr constant [109 x i8] c"generated/home/dtcxzyw/WorkSpace/Projects/compilers/llvm-opt-benchmark/bench/z3/z3/src/sat/smt/pb_solver.cpp\00", align 1
@.str.2 = private unnamed_addr constant [29 x i8] c"UNEXPECTED CODE WAS REACHED.\00", align 1

; Function Attrs: mustprogress nounwind uwtable
define linkonce_odr hidden noundef i32 @_ZNK2pb10constraint3tagEv(ptr noundef nonnull align 8 dereferenceable(64) %this) #4 comdat align 2 {
entry:
  %this.addr = alloca ptr, align 8
  store ptr %this, ptr %this.addr, align 8
  %this1 = load ptr, ptr %this.addr, align 8
  %m_tag = getelementptr inbounds %"class.pb::constraint", ptr %this1, i32 0, i32 1
  %0 = load i32, ptr %m_tag, align 8
  ret i32 %0
}

; Function Attrs: mustprogress uwtable
define hidden noundef i32 @_ZN2pb6solver10add_assignERNS_10constraintEN3sat7literalE(ptr noundef nonnull align 8 dereferenceable(1049) %this, ptr noundef nonnull align 8 dereferenceable(64) %c, i32 %l.coerce) #5 align 2 {
entry:
  %retval = alloca i32, align 4
  %l = alloca %"class.sat::literal", align 4
  %this.addr = alloca ptr, align 8
  %c.addr = alloca ptr, align 8
  %agg.tmp = alloca %"class.sat::literal", align 4
  %agg.tmp7 = alloca %"class.sat::literal", align 4
  %coerce.dive = getelementptr inbounds %"class.sat::literal", ptr %l, i32 0, i32 0
  store i32 %l.coerce, ptr %coerce.dive, align 4
  store ptr %this, ptr %this.addr, align 8
  store ptr %c, ptr %c.addr, align 8
  %this1 = load ptr, ptr %this.addr, align 8
  %0 = load ptr, ptr %c.addr, align 8
  %call = call noundef i32 @_ZNK2pb10constraint3tagEv(ptr noundef nonnull align 8 dereferenceable(64) %0)
  switch i32 %call, label %sw.epilog [
    i32 0, label %sw.bb
    i32 1, label %sw.bb5
  ]

sw.bb:                                            ; preds = %entry
  %1 = load ptr, ptr %c.addr, align 8
  %call2 = call noundef nonnull align 8 dereferenceable(64) ptr @_ZN2pb10constraint7to_cardEv(ptr noundef nonnull align 8 dereferenceable(64) %1)
  call void @llvm.memcpy.p0.p0.i64(ptr align 4 %agg.tmp, ptr align 4 %l, i64 4, i1 false)
  %coerce.dive3 = getelementptr inbounds %"class.sat::literal", ptr %agg.tmp, i32 0, i32 0
  %2 = load i32, ptr %coerce.dive3, align 4
  %call4 = call noundef i32 @_ZN2pb6solver10add_assignERNS_4cardEN3sat7literalE(ptr noundef nonnull align 8 dereferenceable(1049) %this1, ptr noundef nonnull align 8 dereferenceable(64) %call2, i32 %2)
  store i32 %call4, ptr %retval, align 4
  br label %return

sw.bb5:                                           ; preds = %entry
  %3 = load ptr, ptr %c.addr, align 8
  %call6 = call noundef nonnull align 8 dereferenceable(76) ptr @_ZN2pb10constraint5to_pbEv(ptr noundef nonnull align 8 dereferenceable(64) %3)
  call void @llvm.memcpy.p0.p0.i64(ptr align 4 %agg.tmp7, ptr align 4 %l, i64 4, i1 false)
  %coerce.dive8 = getelementptr inbounds %"class.sat::literal", ptr %agg.tmp7, i32 0, i32 0
  %4 = load i32, ptr %coerce.dive8, align 4
  %call9 = call noundef i32 @_ZN2pb6solver10add_assignERNS_3pbcEN3sat7literalE(ptr noundef nonnull align 8 dereferenceable(1049) %this1, ptr noundef nonnull align 8 dereferenceable(76) %call6, i32 %4)
  store i32 %call9, ptr %retval, align 4
  br label %return

sw.epilog:                                        ; preds = %entry
  call void @_Z26notify_assertion_violationPKciS0_(ptr noundef @.str, i32 noundef 1434, ptr noundef @.str.2)
  call void @exit(i32 noundef 114) #17
  unreachable

return:                                           ; preds = %sw.bb5, %sw.bb
  %5 = load i32, ptr %retval, align 4
  ret i32 %5
}