; Function Attrs: mustprogress uwtable
define hidden noundef i32 @_ZN2pb6solver10add_assignERNS_10constraintEN3sat7literalE(ptr noundef nonnull align 8 dereferenceable(1049) %this, ptr noundef nonnull align 8 dereferenceable(64) %c, i32 %l.coerce) local_unnamed_addr #3 align 2 {
entry:
  %m_tag.i = getelementptr inbounds i8, ptr %c, i64 8
  %0 = load i32, ptr %m_tag.i, align 8
  switch i32 %0, label %sw.epilog [
    i32 0, label %sw.bb
    i32 1, label %sw.bb5
  ]

sw.bb:                                            ; preds = %entry
  %call2 = tail call noundef nonnull align 8 dereferenceable(64) ptr @_ZN2pb10constraint7to_cardEv(ptr noundef nonnull align 8 dereferenceable(64) %c)
  %call4 = tail call noundef i32 @_ZN2pb6solver10add_assignERNS_4cardEN3sat7literalE(ptr noundef nonnull align 8 dereferenceable(1049) %this, ptr noundef nonnull align 8 dereferenceable(64) %call2, i32 %l.coerce), !range !90
  br label %return

sw.bb5:                                           ; preds = %entry
  %call6 = tail call noundef nonnull align 8 dereferenceable(76) ptr @_ZN2pb10constraint5to_pbEv(ptr noundef nonnull align 8 dereferenceable(64) %c)
  %call9 = tail call noundef i32 @_ZN2pb6solver10add_assignERNS_3pbcEN3sat7literalE(ptr noundef nonnull align 8 dereferenceable(1049) %this, ptr noundef nonnull align 8 dereferenceable(76) %call6, i32 %l.coerce), !range !91
  br label %return

sw.epilog:                                        ; preds = %entry
  tail call void @_Z26notify_assertion_violationPKciS0_(ptr noundef nonnull @.str, i32 noundef 1434, ptr noundef nonnull @.str.2)
  tail call void @exit(i32 noundef 114) #27
  unreachable

return:                                           ; preds = %sw.bb5, %sw.bb
  %retval.0 = phi i32 [ %call9, %sw.bb5 ], [ %call4, %sw.bb ]
  ret i32 %retval.0
}